target datalayout = "e-m:e-p270:32:32-p271:32:32-p272:64:64-i64:64-i128:128-f80:128-n8:16:32:64-S128"
target triple = "x86_64-unknown-linux-gnu"

%"class.eastl::span" = type { ptr, i64 }

@.str = private unnamed_addr constant [114 x i8] c"generated/home/dtcxzyw/WorkSpace/Projects/compilers/llvm-opt-benchmark/bench/eastl/EASTL/test/source/TestSpan.cpp\00", align 1
@__const._Z21TestSpanElementAccessRi.arr = private unnamed_addr constant [5 x i32] [i32 0, i32 1, i32 2, i32 3, i32 4], align 16
@.str.19 = private unnamed_addr constant [15 x i8] c"s.front() == 0\00", align 1
@.str.20 = private unnamed_addr constant [14 x i8] c"s.back() == 4\00", align 1
@.str.21 = private unnamed_addr constant [10 x i8] c"s[0] == 0\00", align 1
@.str.22 = private unnamed_addr constant [10 x i8] c"s[1] == 1\00", align 1
@.str.23 = private unnamed_addr constant [10 x i8] c"s[2] == 2\00", align 1
@.str.24 = private unnamed_addr constant [10 x i8] c"s[3] == 3\00", align 1
@.str.25 = private unnamed_addr constant [10 x i8] c"s[4] == 4\00", align 1
@.str.26 = private unnamed_addr constant [10 x i8] c"s(0) == 0\00", align 1
@.str.27 = private unnamed_addr constant [10 x i8] c"s(1) == 1\00", align 1
@.str.28 = private unnamed_addr constant [10 x i8] c"s(2) == 2\00", align 1
@.str.29 = private unnamed_addr constant [10 x i8] c"s(3) == 3\00", align 1
@.str.30 = private unnamed_addr constant [10 x i8] c"s(4) == 4\00", align 1

; Function Attrs: mustprogress nounwind uwtable
define linkonce_odr dso_local void @_ZN5eastl4spanIiLm18446744073709551615EEC2EPim(ptr noundef nonnull align 8 dereferenceable(16) %this, ptr noundef %ptr, i64 noundef %size) unnamed_addr #1 comdat align 2 {
entry:
  %this.addr = alloca ptr, align 8
  %ptr.addr = alloca ptr, align 8
  %size.addr = alloca i64, align 8
  store ptr %this, ptr %this.addr, align 8
  store ptr %ptr, ptr %ptr.addr, align 8
  store i64 %size, ptr %size.addr, align 8
  %this1 = load ptr, ptr %this.addr, align 8
  %mpData = getelementptr inbounds %"class.eastl::span", ptr %this1, i32 0, i32 0
  %0 = load ptr, ptr %ptr.addr, align 8
  store ptr %0, ptr %mpData, align 8
  %mnSize = getelementptr inbounds %"class.eastl::span", ptr %this1, i32 0, i32 1
  %1 = load i64, ptr %size.addr, align 8
  store i64 %1, ptr %mnSize, align 8
  ret void
}

; Function Attrs: mustprogress nounwind uwtable
define linkonce_odr dso_local noundef nonnull align 4 dereferenceable(4) ptr @_ZNK5eastl4spanIiLm18446744073709551615EEclEm(ptr noundef nonnull align 8 dereferenceable(16) %this, i64 noundef %idx) #1 comdat align 2 {
entry:
  %this.addr = alloca ptr, align 8
  %idx.addr = alloca i64, align 8
  store ptr %this, ptr %this.addr, align 8
  store i64 %idx, ptr %idx.addr, align 8
  %this1 = load ptr, ptr %this.addr, align 8
  %mpData = getelementptr inbounds %"class.eastl::span", ptr %this1, i32 0, i32 0
  %0 = load ptr, ptr %mpData, align 8
  %1 = load i64, ptr %idx.addr, align 8
  %arrayidx = getelementptr inbounds i32, ptr %0, i64 %1
  ret ptr %arrayidx
}

; Function Attrs: mustprogress nounwind uwtable
define linkonce_odr dso_local noundef nonnull align 4 dereferenceable(4) ptr @_ZNK5eastl4spanIiLm18446744073709551615EEixEm(ptr noundef nonnull align 8 dereferenceable(16) %this, i64 noundef %idx) #1 comdat align 2 {
entry:
  %this.addr = alloca ptr, align 8
  %idx.addr = alloca i64, align 8
  store ptr %this, ptr %this.addr, align 8
  store i64 %idx, ptr %idx.addr, align 8
  %this1 = load ptr, ptr %this.addr, align 8
  %mpData = getelementptr inbounds %"class.eastl::span", ptr %this1, i32 0, i32 0
  %0 = load ptr, ptr %mpData, align 8
  %1 = load i64, ptr %idx.addr, align 8
  %arrayidx = getelementptr inbounds i32, ptr %0, i64 %1
  ret ptr %arrayidx
}

; Function Attrs: mustprogress nounwind uwtable
define linkonce_odr dso_local noundef nonnull align 4 dereferenceable(4) ptr @_ZNK5eastl4spanIiLm18446744073709551615EE4backEv(ptr noundef nonnull align 8 dereferenceable(16) %this) #1 comdat align 2 {
entry:
  %this.addr = alloca ptr, align 8
  store ptr %this, ptr %this.addr, align 8
  %this1 = load ptr, ptr %this.addr, align 8
  %mpData = getelementptr inbounds %"class.eastl::span", ptr %this1, i32 0, i32 0
  %0 = load ptr, ptr %mpData, align 8
  %mnSize = getelementptr inbounds %"class.eastl::span", ptr %this1, i32 0, i32 1
  %1 = load i64, ptr %mnSize, align 8
  %sub = sub i64 %1, 1
  %arrayidx = getelementptr inbounds i32, ptr %0, i64 %sub
  ret ptr %arrayidx
}

; Function Attrs: mustprogress nounwind uwtable
define linkonce_odr dso_local noundef nonnull align 4 dereferenceable(4) ptr @_ZNK5eastl4spanIiLm18446744073709551615EE5frontEv(ptr noundef nonnull align 8 dereferenceable(16) %this) #1 comdat align 2 {
entry:
  %this.addr = alloca ptr, align 8
  store ptr %this, ptr %this.addr, align 8
  %this1 = load ptr, ptr %this.addr, align 8
  %mpData = getelementptr inbounds %"class.eastl::span", ptr %this1, i32 0, i32 0
  %0 = load ptr, ptr %mpData, align 8
  %arrayidx = getelementptr inbounds i32, ptr %0, i64 0
  ret ptr %arrayidx
}

; Function Attrs: mustprogress nounwind uwtable
define linkonce_odr dso_local void @_ZN5eastl4spanIiLm18446744073709551615EEC2ILm5EvEERAT__i(ptr noundef nonnull align 8 dereferenceable(16) %this, ptr noundef nonnull align 4 dereferenceable(20) %arr) unnamed_addr #1 comdat align 2 {
entry:
  %this.addr = alloca ptr, align 8
  %arr.addr = alloca ptr, align 8
  store ptr %this, ptr %this.addr, align 8
  store ptr %arr, ptr %arr.addr, align 8
  %this1 = load ptr, ptr %this.addr, align 8
  %0 = load ptr, ptr %arr.addr, align 8
  %arraydecay = getelementptr inbounds [5 x i32], ptr %0, i64 0, i64 0
  call void @_ZN5eastl4spanIiLm18446744073709551615EEC2EPim(ptr noundef nonnull align 8 dereferenceable(16) %this1, ptr noundef %arraydecay, i64 noundef 5)
  ret void
}

; Function Attrs: mustprogress uwtable
define dso_local void @_Z21TestSpanElementAccessRi(ptr noundef nonnull align 4 dereferenceable(4) %nErrorCount) #0 {
entry:
  %nErrorCount.addr = alloca ptr, align 8
  %arr = alloca [5 x i32], align 16
  %s = alloca %"class.eastl::span", align 8
  store ptr %nErrorCount, ptr %nErrorCount.addr, align 8
  call void @llvm.memcpy.p0.p0.i64(ptr align 16 %arr, ptr align 16 @__const._Z21TestSpanElementAccessRi.arr, i64 20, i1 false)
  call void @_ZN5eastl4spanIiLm18446744073709551615EEC2ILm5EvEERAT__i(ptr noundef nonnull align 8 dereferenceable(16) %s, ptr noundef nonnull align 4 dereferenceable(20) %arr) #7
  %call = call noundef nonnull align 4 dereferenceable(4) ptr @_ZNK5eastl4spanIiLm18446744073709551615EE5frontEv(ptr noundef nonnull align 8 dereferenceable(16) %s)
  %0 = load i32, ptr %call, align 4
  %cmp = icmp eq i32 %0, 0
  %1 = load ptr, ptr %nErrorCount.addr, align 8
  %call1 = call noundef i32 @_ZN2EA8UnitTest12TestInternal17EATEST_VERIFY_IMPEbRiPKciS4_(i1 noundef zeroext %cmp, ptr noundef nonnull align 4 dereferenceable(4) %1, ptr noundef @.str, i32 noundef 131, ptr noundef @.str.19)
  %call2 = call noundef nonnull align 4 dereferenceable(4) ptr @_ZNK5eastl4spanIiLm18446744073709551615EE4backEv(ptr noundef nonnull align 8 dereferenceable(16) %s)
  %2 = load i32, ptr %call2, align 4
  %cmp3 = icmp eq i32 %2, 4
  %3 = load ptr, ptr %nErrorCount.addr, align 8
  %call4 = call noundef i32 @_ZN2EA8UnitTest12TestInternal17EATEST_VERIFY_IMPEbRiPKciS4_(i1 noundef zeroext %cmp3, ptr noundef nonnull align 4 dereferenceable(4) %3, ptr noundef @.str, i32 noundef 132, ptr noundef @.str.20)
  %call5 = call noundef nonnull align 4 dereferenceable(4) ptr @_ZNK5eastl4spanIiLm18446744073709551615EEixEm(ptr noundef nonnull align 8 dereferenceable(16) %s, i64 noundef 0)
  %4 = load i32, ptr %call5, align 4
  %cmp6 = icmp eq i32 %4, 0
  %5 = load ptr, ptr %nErrorCount.addr, align 8
  %call7 = call noundef i32 @_ZN2EA8UnitTest12TestInternal17EATEST_VERIFY_IMPEbRiPKciS4_(i1 noundef zeroext %cmp6, ptr noundef nonnull align 4 dereferenceable(4) %5, ptr noundef @.str, i32 noundef 134, ptr noundef @.str.21)
  %call8 = call noundef nonnull align 4 dereferenceable(4) ptr @_ZNK5eastl4spanIiLm18446744073709551615EEixEm(ptr noundef nonnull align 8 dereferenceable(16) %s, i64 noundef 1)
  %6 = load i32, ptr %call8, align 4
  %cmp9 = icmp eq i32 %6, 1
  %7 = load ptr, ptr %nErrorCount.addr, align 8
  %call10 = call noundef i32 @_ZN2EA8UnitTest12TestInternal17EATEST_VERIFY_IMPEbRiPKciS4_(i1 noundef zeroext %cmp9, ptr noundef nonnull align 4 dereferenceable(4) %7, ptr noundef @.str, i32 noundef 135, ptr noundef @.str.22)
  %call11 = call noundef nonnull align 4 dereferenceable(4) ptr @_ZNK5eastl4spanIiLm18446744073709551615EEixEm(ptr noundef nonnull align 8 dereferenceable(16) %s, i64 noundef 2)
  %8 = load i32, ptr %call11, align 4
  %cmp12 = icmp eq i32 %8, 2
  %9 = load ptr, ptr %nErrorCount.addr, align 8
  %call13 = call noundef i32 @_ZN2EA8UnitTest12TestInternal17EATEST_VERIFY_IMPEbRiPKciS4_(i1 noundef zeroext %cmp12, ptr noundef nonnull align 4 dereferenceable(4) %9, ptr noundef @.str, i32 noundef 136, ptr noundef @.str.23)
  %call14 = call noundef nonnull align 4 dereferenceable(4) ptr @_ZNK5eastl4spanIiLm18446744073709551615EEixEm(ptr noundef nonnull align 8 dereferenceable(16) %s, i64 noundef 3)
  %10 = load i32, ptr %call14, align 4
  %cmp15 = icmp eq i32 %10, 3
  %11 = load ptr, ptr %nErrorCount.addr, align 8
  %call16 = call noundef i32 @_ZN2EA8UnitTest12TestInternal17EATEST_VERIFY_IMPEbRiPKciS4_(i1 noundef zeroext %cmp15, ptr noundef nonnull align 4 dereferenceable(4) %11, ptr noundef @.str, i32 noundef 137, ptr noundef @.str.24)
  %call17 = call noundef nonnull align 4 dereferenceable(4) ptr @_ZNK5eastl4spanIiLm18446744073709551615EEixEm(ptr noundef nonnull align 8 dereferenceable(16) %s, i64 noundef 4)
  %12 = load i32, ptr %call17, align 4
  %cmp18 = icmp eq i32 %12, 4
  %13 = load ptr, ptr %nErrorCount.addr, align 8
  %call19 = call noundef i32 @_ZN2EA8UnitTest12TestInternal17EATEST_VERIFY_IMPEbRiPKciS4_(i1 noundef zeroext %cmp18, ptr noundef nonnull align 4 dereferenceable(4) %13, ptr noundef @.str, i32 noundef 138, ptr noundef @.str.25)
  %call20 = call noundef nonnull align 4 dereferenceable(4) ptr @_ZNK5eastl4spanIiLm18446744073709551615EEclEm(ptr noundef nonnull align 8 dereferenceable(16) %s, i64 noundef 0)
  %14 = load i32, ptr %call20, align 4
  %cmp21 = icmp eq i32 %14, 0
  %15 = load ptr, ptr %nErrorCount.addr, align 8
  %call22 = call noundef i32 @_ZN2EA8UnitTest12TestInternal17EATEST_VERIFY_IMPEbRiPKciS4_(i1 noundef zeroext %cmp21, ptr noundef nonnull align 4 dereferenceable(4) %15, ptr noundef @.str, i32 noundef 140, ptr noundef @.str.26)
  %call23 = call noundef nonnull align 4 dereferenceable(4) ptr @_ZNK5eastl4spanIiLm18446744073709551615EEclEm(ptr noundef nonnull align 8 dereferenceable(16) %s, i64 noundef 1)
  %16 = load i32, ptr %call23, align 4
  %cmp24 = icmp eq i32 %16, 1
  %17 = load ptr, ptr %nErrorCount.addr, align 8
  %call25 = call noundef i32 @_ZN2EA8UnitTest12TestInternal17EATEST_VERIFY_IMPEbRiPKciS4_(i1 noundef zeroext %cmp24, ptr noundef nonnull align 4 dereferenceable(4) %17, ptr noundef @.str, i32 noundef 141, ptr noundef @.str.27)
  %call26 = call noundef nonnull align 4 dereferenceable(4) ptr @_ZNK5eastl4spanIiLm18446744073709551615EEclEm(ptr noundef nonnull align 8 dereferenceable(16) %s, i64 noundef 2)
  %18 = load i32, ptr %call26, align 4
  %cmp27 = icmp eq i32 %18, 2
  %19 = load ptr, ptr %nErrorCount.addr, align 8
  %call28 = call noundef i32 @_ZN2EA8UnitTest12TestInternal17EATEST_VERIFY_IMPEbRiPKciS4_(i1 noundef zeroext %cmp27, ptr noundef nonnull align 4 dereferenceable(4) %19, ptr noundef @.str, i32 noundef 142, ptr noundef @.str.28)
  %call29 = call noundef nonnull align 4 dereferenceable(4) ptr @_ZNK5eastl4spanIiLm18446744073709551615EEclEm(ptr noundef nonnull align 8 dereferenceable(16) %s, i64 noundef 3)
  %20 = load i32, ptr %call29, align 4
  %cmp30 = icmp eq i32 %20, 3
  %21 = load ptr, ptr %nErrorCount.addr, align 8
  %call31 = call noundef i32 @_ZN2EA8UnitTest12TestInternal17EATEST_VERIFY_IMPEbRiPKciS4_(i1 noundef zeroext %cmp30, ptr noundef nonnull align 4 dereferenceable(4) %21, ptr noundef @.str, i32 noundef 143, ptr noundef @.str.29)
  %call32 = call noundef nonnull align 4 dereferenceable(4) ptr @_ZNK5eastl4spanIiLm18446744073709551615EEclEm(ptr noundef nonnull align 8 dereferenceable(16) %s, i64 noundef 4)
  %22 = load i32, ptr %call32, align 4
  %cmp33 = icmp eq i32 %22, 4
  %23 = load ptr, ptr %nErrorCount.addr, align 8
  %call34 = call noundef i32 @_ZN2EA8UnitTest12TestInternal17EATEST_VERIFY_IMPEbRiPKciS4_(i1 noundef zeroext %cmp33, ptr noundef nonnull align 4 dereferenceable(4) %23, ptr noundef @.str, i32 noundef 144, ptr noundef @.str.30)
  ret void
}