; Function Attrs: mustprogress uwtable
define dso_local void @_Z21TestSpanElementAccessRi(ptr noundef nonnull align 4 dereferenceable(4) %nErrorCount) local_unnamed_addr #0 {
entry:
  %call1 = tail call noundef i32 @_ZN2EA8UnitTest12TestInternal17EATEST_VERIFY_IMPEbRiPKciS4_(i1 noundef zeroext true, ptr noundef nonnull align 4 dereferenceable(4) %nErrorCount, ptr noundef nonnull @.str, i32 noundef 131, ptr noundef nonnull @.str.19)
  %call4 = tail call noundef i32 @_ZN2EA8UnitTest12TestInternal17EATEST_VERIFY_IMPEbRiPKciS4_(i1 noundef zeroext true, ptr noundef nonnull align 4 dereferenceable(4) %nErrorCount, ptr noundef nonnull @.str, i32 noundef 132, ptr noundef nonnull @.str.20)
  %call7 = tail call noundef i32 @_ZN2EA8UnitTest12TestInternal17EATEST_VERIFY_IMPEbRiPKciS4_(i1 noundef zeroext true, ptr noundef nonnull align 4 dereferenceable(4) %nErrorCount, ptr noundef nonnull @.str, i32 noundef 134, ptr noundef nonnull @.str.21)
  %call10 = tail call noundef i32 @_ZN2EA8UnitTest12TestInternal17EATEST_VERIFY_IMPEbRiPKciS4_(i1 noundef zeroext true, ptr noundef nonnull align 4 dereferenceable(4) %nErrorCount, ptr noundef nonnull @.str, i32 noundef 135, ptr noundef nonnull @.str.22)
  %call13 = tail call noundef i32 @_ZN2EA8UnitTest12TestInternal17EATEST_VERIFY_IMPEbRiPKciS4_(i1 noundef zeroext true, ptr noundef nonnull align 4 dereferenceable(4) %nErrorCount, ptr noundef nonnull @.str, i32 noundef 136, ptr noundef nonnull @.str.23)
  %call16 = tail call noundef i32 @_ZN2EA8UnitTest12TestInternal17EATEST_VERIFY_IMPEbRiPKciS4_(i1 noundef zeroext true, ptr noundef nonnull align 4 dereferenceable(4) %nErrorCount, ptr noundef nonnull @.str, i32 noundef 137, ptr noundef nonnull @.str.24)
  %call19 = tail call noundef i32 @_ZN2EA8UnitTest12TestInternal17EATEST_VERIFY_IMPEbRiPKciS4_(i1 noundef zeroext true, ptr noundef nonnull align 4 dereferenceable(4) %nErrorCount, ptr noundef nonnull @.str, i32 noundef 138, ptr noundef nonnull @.str.25)
  %call22 = tail call noundef i32 @_ZN2EA8UnitTest12TestInternal17EATEST_VERIFY_IMPEbRiPKciS4_(i1 noundef zeroext true, ptr noundef nonnull align 4 dereferenceable(4) %nErrorCount, ptr noundef nonnull @.str, i32 noundef 140, ptr noundef nonnull @.str.26)
  %call25 = tail call noundef i32 @_ZN2EA8UnitTest12TestInternal17EATEST_VERIFY_IMPEbRiPKciS4_(i1 noundef zeroext true, ptr noundef nonnull align 4 dereferenceable(4) %nErrorCount, ptr noundef nonnull @.str, i32 noundef 141, ptr noundef nonnull @.str.27)
  %call28 = tail call noundef i32 @_ZN2EA8UnitTest12TestInternal17EATEST_VERIFY_IMPEbRiPKciS4_(i1 noundef zeroext true, ptr noundef nonnull align 4 dereferenceable(4) %nErrorCount, ptr noundef nonnull @.str, i32 noundef 142, ptr noundef nonnull @.str.28)
  %call31 = tail call noundef i32 @_ZN2EA8UnitTest12TestInternal17EATEST_VERIFY_IMPEbRiPKciS4_(i1 noundef zeroext true, ptr noundef nonnull align 4 dereferenceable(4) %nErrorCount, ptr noundef nonnull @.str, i32 noundef 143, ptr noundef nonnull @.str.29)
  %call34 = tail call noundef i32 @_ZN2EA8UnitTest12TestInternal17EATEST_VERIFY_IMPEbRiPKciS4_(i1 noundef zeroext true, ptr noundef nonnull align 4 dereferenceable(4) %nErrorCount, ptr noundef nonnull @.str, i32 noundef 144, ptr noundef nonnull @.str.30)
  ret void
}